target datalayout = "e-m:e-p270:32:32-p271:32:32-p272:64:64-i64:64-i128:128-f80:128-n8:16:32:64-S128"
target triple = "x86_64-pc-linux-gnu"

%struct.evp_cipher_ctx_st = type { ptr, ptr, i32, i32, [16 x i8], [16 x i8], [32 x i8], i32, ptr, i32, i32, i64, ptr, i32, i32, [32 x i8], i64, ptr, ptr }
%struct.EVP_AES_CCM_CTX = type { %union.anon.4, i32, i32, i32, i32, i32, i32, i32, %struct.ccm128_context, ptr }
%union.anon.4 = type { double, [240 x i8] }
%struct.ccm128_context = type { %union.anon.5, %union.anon.5, i64, ptr, ptr }
%union.anon.5 = type { [2 x i64] }

@.str = private unnamed_addr constant [30 x i8] c"../openssl/crypto/evp/e_aes.c\00", align 1
@__func__.aesni_ccm_init_key = private unnamed_addr constant [19 x i8] c"aesni_ccm_init_key\00", align 1

; Function Attrs: nounwind uwtable
define internal i32 @aesni_ccm_init_key(ptr noundef %0, ptr noundef %1, ptr noundef %2, i32 noundef %3) #0 {
  %5 = alloca i32, align 4
  %6 = alloca ptr, align 8
  %7 = alloca ptr, align 8
  %8 = alloca ptr, align 8
  %9 = alloca i32, align 4
  %10 = alloca ptr, align 8
  %11 = alloca i32, align 4
  %12 = alloca i32, align 4
  store ptr %0, ptr %6, align 8, !tbaa !7
  store ptr %1, ptr %7, align 8, !tbaa !10
  store ptr %2, ptr %8, align 8, !tbaa !10
  store i32 %3, ptr %9, align 4, !tbaa !3
  call void @llvm.lifetime.start.p0(i64 8, ptr %10) #4
  %13 = load ptr, ptr %6, align 8, !tbaa !7
  %14 = call ptr @EVP_CIPHER_CTX_get_cipher_data(ptr noundef %13)
  store ptr %14, ptr %10, align 8, !tbaa !12
  %15 = load ptr, ptr %8, align 8, !tbaa !10
  %16 = icmp eq ptr %15, null
  br i1 %16, label %17, label %21

17:                                               ; preds = %4
  %18 = load ptr, ptr %7, align 8, !tbaa !10
  %19 = icmp eq ptr %18, null
  br i1 %19, label %20, label %21

20:                                               ; preds = %17
  store i32 1, ptr %5, align 4
  store i32 1, ptr %11, align 4
  br label %73

21:                                               ; preds = %17, %4
  %22 = load ptr, ptr %7, align 8, !tbaa !10
  %23 = icmp ne ptr %22, null
  br i1 %23, label %24, label %57

24:                                               ; preds = %21
  call void @llvm.lifetime.start.p0(i64 4, ptr %12) #4
  %25 = load ptr, ptr %6, align 8, !tbaa !7
  %26 = call i32 @EVP_CIPHER_CTX_get_key_length(ptr noundef %25)
  %27 = mul nsw i32 %26, 8
  store i32 %27, ptr %12, align 4, !tbaa !3
  %28 = load i32, ptr %12, align 4, !tbaa !3
  %29 = icmp sle i32 %28, 0
  br i1 %29, label %30, label %31

30:                                               ; preds = %24
  call void @ERR_new()
  call void @ERR_set_debug(ptr noundef @.str, i32 noundef 339, ptr noundef @__func__.aesni_ccm_init_key)
  call void (i32, i32, ptr, ...) @ERR_set_error(i32 noundef 6, i32 noundef 130, ptr noundef null)
  store i32 0, ptr %5, align 4
  store i32 1, ptr %11, align 4
  br label %54

31:                                               ; preds = %24
  %32 = load ptr, ptr %7, align 8, !tbaa !10
  %33 = load i32, ptr %12, align 4, !tbaa !3
  %34 = load ptr, ptr %10, align 8, !tbaa !12
  %35 = getelementptr inbounds nuw %struct.EVP_AES_CCM_CTX, ptr %34, i32 0, i32 0
  %36 = call i32 @aesni_set_encrypt_key(ptr noundef %32, i32 noundef %33, ptr noundef %35)
  %37 = load ptr, ptr %10, align 8, !tbaa !12
  %38 = getelementptr inbounds nuw %struct.EVP_AES_CCM_CTX, ptr %37, i32 0, i32 8
  %39 = load ptr, ptr %10, align 8, !tbaa !12
  %40 = getelementptr inbounds nuw %struct.EVP_AES_CCM_CTX, ptr %39, i32 0, i32 6
  %41 = load i32, ptr %40, align 4, !tbaa !49
  %42 = load ptr, ptr %10, align 8, !tbaa !12
  %43 = getelementptr inbounds nuw %struct.EVP_AES_CCM_CTX, ptr %42, i32 0, i32 5
  %44 = load i32, ptr %43, align 8, !tbaa !53
  %45 = load ptr, ptr %10, align 8, !tbaa !12
  %46 = getelementptr inbounds nuw %struct.EVP_AES_CCM_CTX, ptr %45, i32 0, i32 0
  call void @CRYPTO_ccm128_init(ptr noundef %38, i32 noundef %41, i32 noundef %44, ptr noundef %46, ptr noundef @aesni_encrypt)
  %47 = load i32, ptr %9, align 4, !tbaa !3
  %48 = icmp ne i32 %47, 0
  %49 = select i1 %48, ptr @aesni_ccm64_encrypt_blocks, ptr @aesni_ccm64_decrypt_blocks
  %50 = load ptr, ptr %10, align 8, !tbaa !12
  %51 = getelementptr inbounds nuw %struct.EVP_AES_CCM_CTX, ptr %50, i32 0, i32 9
  store ptr %49, ptr %51, align 8, !tbaa !54
  %52 = load ptr, ptr %10, align 8, !tbaa !12
  %53 = getelementptr inbounds nuw %struct.EVP_AES_CCM_CTX, ptr %52, i32 0, i32 1
  store i32 1, ptr %53, align 8, !tbaa !55
  store i32 0, ptr %11, align 4
  br label %54

54:                                               ; preds = %31, %30
  call void @llvm.lifetime.end.p0(i64 4, ptr %12) #4
  %55 = load i32, ptr %11, align 4
  switch i32 %55, label %73 [
    i32 0, label %56
  ]

56:                                               ; preds = %54
  br label %57

57:                                               ; preds = %56, %21
  %58 = load ptr, ptr %8, align 8, !tbaa !10
  %59 = icmp ne ptr %58, null
  br i1 %59, label %60, label %72

60:                                               ; preds = %57
  %61 = load ptr, ptr %6, align 8, !tbaa !7
  %62 = getelementptr inbounds nuw %struct.evp_cipher_ctx_st, ptr %61, i32 0, i32 5
  %63 = getelementptr inbounds [16 x i8], ptr %62, i64 0, i64 0
  %64 = load ptr, ptr %8, align 8, !tbaa !10
  %65 = load ptr, ptr %10, align 8, !tbaa !12
  %66 = getelementptr inbounds nuw %struct.EVP_AES_CCM_CTX, ptr %65, i32 0, i32 5
  %67 = load i32, ptr %66, align 8, !tbaa !53
  %68 = sub nsw i32 15, %67
  %69 = sext i32 %68 to i64
  call void @llvm.memcpy.p0.p0.i64(ptr align 8 %63, ptr align 1 %64, i64 %69, i1 false)
  %70 = load ptr, ptr %10, align 8, !tbaa !12
  %71 = getelementptr inbounds nuw %struct.EVP_AES_CCM_CTX, ptr %70, i32 0, i32 2
  store i32 1, ptr %71, align 4, !tbaa !56
  br label %72

72:                                               ; preds = %60, %57
  store i32 1, ptr %5, align 4
  store i32 1, ptr %11, align 4
  br label %73

73:                                               ; preds = %72, %54, %20
  call void @llvm.lifetime.end.p0(i64 8, ptr %10) #4
  %74 = load i32, ptr %5, align 4
  ret i32 %74
}