; Function Attrs: nounwind uwtable
define internal range(i32 0, 2) i32 @aesni_ccm_init_key(ptr noundef %0, ptr noundef %1, ptr noundef readonly captures(address_is_null) %2, i32 noundef %3) #2 {
  %5 = tail call ptr @EVP_CIPHER_CTX_get_cipher_data(ptr noundef %0) #8
  %6 = icmp eq ptr %2, null
  %7 = icmp eq ptr %1, null
  %or.cond = and i1 %7, %6
  br i1 %or.cond, label %31, label %8

8:                                                ; preds = %4
  br i1 %7, label %23, label %9

9:                                                ; preds = %8
  %10 = tail call i32 @EVP_CIPHER_CTX_get_key_length(ptr noundef %0) #8
  %11 = icmp sgt i32 %10, 0
  br i1 %11, label %.thread, label %22

.thread:                                          ; preds = %9
  %12 = shl nsw i32 %10, 3
  %13 = tail call i32 @aesni_set_encrypt_key(ptr noundef nonnull %1, i32 noundef %12, ptr noundef %5) #8
  %14 = getelementptr inbounds nuw i8, ptr %5, i64 280
  %15 = getelementptr inbounds nuw i8, ptr %5, i64 268
  %16 = load i32, ptr %15, align 4, !tbaa !44
  %17 = getelementptr inbounds nuw i8, ptr %5, i64 264
  %18 = load i32, ptr %17, align 8, !tbaa !48
  tail call void @CRYPTO_ccm128_init(ptr noundef nonnull %14, i32 noundef %16, i32 noundef %18, ptr noundef %5, ptr noundef nonnull @aesni_encrypt) #8
  %.not27 = icmp eq i32 %3, 0
  %19 = select i1 %.not27, ptr @aesni_ccm64_decrypt_blocks, ptr @aesni_ccm64_encrypt_blocks
  %20 = getelementptr inbounds nuw i8, ptr %5, i64 336
  store ptr %19, ptr %20, align 8, !tbaa !49
  %21 = getelementptr inbounds nuw i8, ptr %5, i64 248
  store i32 1, ptr %21, align 8, !tbaa !50
  br label %23

22:                                               ; preds = %9
  tail call void @ERR_new() #8
  tail call void @ERR_set_debug(ptr noundef nonnull @.str, i32 noundef 339, ptr noundef nonnull @__func__.aesni_ccm_init_key) #8
  tail call void (i32, i32, ptr, ...) @ERR_set_error(i32 noundef 6, i32 noundef 130, ptr noundef null) #8
  br label %31

23:                                               ; preds = %.thread, %8
  br i1 %6, label %31, label %24

24:                                               ; preds = %23
  %25 = getelementptr inbounds nuw i8, ptr %0, i64 40
  %26 = getelementptr inbounds nuw i8, ptr %5, i64 264
  %27 = load i32, ptr %26, align 8, !tbaa !48
  %28 = sub nsw i32 15, %27
  %29 = sext i32 %28 to i64
  tail call void @llvm.memcpy.p0.p0.i64(ptr nonnull align 8 %25, ptr nonnull align 1 %2, i64 %29, i1 false)
  %30 = getelementptr inbounds nuw i8, ptr %5, i64 252
  store i32 1, ptr %30, align 4, !tbaa !51
  br label %31

31:                                               ; preds = %22, %23, %24, %4
  %.0 = phi i32 [ 0, %22 ], [ 1, %4 ], [ 1, %24 ], [ 1, %23 ]
  ret i32 %.0
}